; Function Attrs: nounwind uwtable
define hidden void @VP8LPutBitsInternal(ptr noundef captures(none) %0, i32 noundef %1, i32 noundef %2) local_unnamed_addr #0 {
  %4 = icmp sgt i32 %2, 0
  br i1 %4, label %5, label %56

5:                                                ; preds = %3
  %6 = load i64, ptr %0, align 8, !tbaa !27
  %7 = getelementptr inbounds nuw i8, ptr %0, i64 8
  %8 = load i32, ptr %7, align 8, !tbaa !28
  %9 = icmp sgt i32 %8, 31
  br i1 %9, label %.lr.ph, label %._crit_edge

.lr.ph:                                           ; preds = %5
  %10 = getelementptr inbounds nuw i8, ptr %0, i64 24
  %11 = getelementptr inbounds nuw i8, ptr %0, i64 32
  %12 = getelementptr inbounds nuw i8, ptr %0, i64 16
  %.pre = load ptr, ptr %10, align 8, !tbaa !25
  %.pre39 = load ptr, ptr %11, align 8, !tbaa !26
  br label %13

13:                                               ; preds = %.lr.ph, %.critedge
  %14 = phi ptr [ %.pre39, %.lr.ph ], [ %45, %.critedge ]
  %15 = phi ptr [ %.pre, %.lr.ph ], [ %47, %.critedge ]
  %.02636 = phi i64 [ %6, %.lr.ph ], [ %48, %.critedge ]
  %.02735 = phi i32 [ %8, %.lr.ph ], [ %49, %.critedge ]
  %16 = getelementptr inbounds nuw i8, ptr %15, i64 4
  %17 = icmp ugt ptr %16, %14
  br i1 %17, label %18, label %.critedge

18:                                               ; preds = %13
  %19 = load ptr, ptr %12, align 8, !tbaa !24
  %20 = ptrtoint ptr %14 to i64
  %21 = ptrtoint ptr %19 to i64
  %22 = sub i64 %20, %21
  %23 = add i64 %22, 32768
  %24 = ptrtoint ptr %15 to i64
  %25 = sub i64 %24, %21
  %26 = add i64 %23, %25
  %.not.i = icmp eq ptr %14, %19
  %.not40.i = icmp ugt i64 %26, %22
  %or.cond.i = or i1 %.not.i, %.not40.i
  br i1 %or.cond.i, label %27, label %.critedge

27:                                               ; preds = %18
  %28 = mul i64 %22, 3
  %29 = lshr i64 %28, 1
  %spec.select.i = tail call i64 @llvm.umax.i64(i64 %29, i64 %26)
  %30 = and i64 %spec.select.i, -1024
  %31 = add i64 %30, 1024
  %32 = tail call ptr @WebPSafeMalloc(i64 noundef 1, i64 noundef %31) #7
  %33 = icmp eq ptr %32, null
  br i1 %33, label %41, label %34

34:                                               ; preds = %27
  %.not41.i = icmp eq ptr %15, %19
  br i1 %.not41.i, label %37, label %35

35:                                               ; preds = %34
  %36 = load ptr, ptr %12, align 8, !tbaa !24
  tail call void @llvm.memcpy.p0.p0.i64(ptr nonnull align 1 %32, ptr align 1 %36, i64 %25, i1 false)
  br label %37

37:                                               ; preds = %35, %34
  %38 = load ptr, ptr %12, align 8, !tbaa !24
  tail call void @WebPSafeFree(ptr noundef %38) #7
  store ptr %32, ptr %12, align 8, !tbaa !24
  %39 = getelementptr inbounds nuw i8, ptr %32, i64 %25
  %40 = getelementptr inbounds nuw i8, ptr %32, i64 %31
  store ptr %40, ptr %11, align 8, !tbaa !26
  br label %.critedge

41:                                               ; preds = %27
  %42 = getelementptr inbounds nuw i8, ptr %0, i64 40
  %43 = load ptr, ptr %12, align 8, !tbaa !24
  store ptr %43, ptr %10, align 8, !tbaa !25
  store i32 1, ptr %42, align 8, !tbaa !22
  br label %56

.critedge:                                        ; preds = %18, %37, %13
  %44 = phi ptr [ %15, %18 ], [ %39, %37 ], [ %15, %13 ]
  %45 = phi ptr [ %14, %18 ], [ %40, %37 ], [ %14, %13 ]
  %46 = trunc i64 %.02636 to i32
  store i32 %46, ptr %44, align 4, !tbaa !31
  %47 = getelementptr inbounds nuw i8, ptr %44, i64 4
  store ptr %47, ptr %10, align 8, !tbaa !25
  %48 = lshr i64 %.02636, 32
  %49 = add nsw i32 %.02735, -32
  %50 = icmp sgt i32 %.02735, 63
  br i1 %50, label %13, label %._crit_edge, !llvm.loop !33

._crit_edge:                                      ; preds = %.critedge, %5
  %.027.lcssa = phi i32 [ %8, %5 ], [ %49, %.critedge ]
  %.026.lcssa = phi i64 [ %6, %5 ], [ %48, %.critedge ]
  %51 = zext i32 %1 to i64
  %52 = zext nneg i32 %.027.lcssa to i64
  %53 = shl i64 %51, %52
  %54 = or i64 %53, %.026.lcssa
  store i64 %54, ptr %0, align 8, !tbaa !27
  %55 = add nsw i32 %.027.lcssa, %2
  store i32 %55, ptr %7, align 8, !tbaa !28
  br label %56

56:                                               ; preds = %41, %._crit_edge, %3
  ret void
}